; Function Attrs: mustprogress nofree norecurse nosync nounwind willreturn memory(argmem: write) uwtable
define void @Wlc_ManSetDefaultParams(ptr noundef writeonly captures(none) initializes((0, 104)) %0) local_unnamed_addr #1 {
  %2 = getelementptr inbounds nuw i8, ptr %0, i64 88
  tail call void @llvm.memset.p0.i64(ptr noundef nonnull align 8 dereferenceable(104) %2, i8 0, i64 16, i1 false)
  store i32 1000000000, ptr %0, align 8
  %3 = getelementptr inbounds nuw i8, ptr %0, i64 4
  store i32 1000000000, ptr %3, align 4
  %4 = getelementptr inbounds nuw i8, ptr %0, i64 8
  store i32 1000000000, ptr %4, align 8
  %5 = getelementptr inbounds nuw i8, ptr %0, i64 12
  store i32 1000000000, ptr %5, align 4
  %6 = getelementptr inbounds nuw i8, ptr %0, i64 16
  store i32 1000, ptr %6, align 8
  %7 = getelementptr inbounds nuw i8, ptr %0, i64 20
  store i32 1000000000, ptr %7, align 4
  %8 = getelementptr inbounds nuw i8, ptr %0, i64 24
  store i32 1, ptr %8, align 8
  %9 = getelementptr inbounds nuw i8, ptr %0, i64 28
  store i32 1, ptr %9, align 4
  %10 = getelementptr inbounds nuw i8, ptr %0, i64 32
  store i32 0, ptr %10, align 8
  %11 = getelementptr inbounds nuw i8, ptr %0, i64 36
  store i32 1, ptr %11, align 4
  %12 = getelementptr inbounds nuw i8, ptr %0, i64 40
  store i32 0, ptr %12, align 8
  %13 = getelementptr inbounds nuw i8, ptr %0, i64 44
  store i32 1, ptr %13, align 4
  %14 = getelementptr inbounds nuw i8, ptr %0, i64 48
  store i32 0, ptr %14, align 8
  %15 = getelementptr inbounds nuw i8, ptr %0, i64 52
  store i32 1, ptr %15, align 4
  %16 = getelementptr inbounds nuw i8, ptr %0, i64 56
  tail call void @llvm.memset.p0.i64(ptr noundef nonnull align 8 dereferenceable(32) %16, i8 0, i64 32, i1 false)
  ret void
}